; Function Attrs: nounwind uwtable
define internal range(i32 -1, 1) i32 @d_setitem(ptr noundef readonly captures(none) %0, i64 noundef %1, ptr noundef %2) #0 {
  %4 = alloca double, align 8
  call void @llvm.lifetime.start.p0(i64 8, ptr nonnull %4) #11
  %5 = call i32 (ptr, ptr, ...) @PyArg_Parse(ptr noundef %2, ptr noundef nonnull @.str.42, ptr noundef nonnull %4) #11
  %.not = icmp eq i32 %5, 0
  br i1 %.not, label %13, label %6

6:                                                ; preds = %3
  %7 = icmp sgt i64 %1, -1
  br i1 %7, label %8, label %13

8:                                                ; preds = %6
  %9 = load double, ptr %4, align 8, !tbaa !73
  %10 = getelementptr inbounds nuw i8, ptr %0, i64 24
  %11 = load ptr, ptr %10, align 8, !tbaa !53
  %12 = getelementptr double, ptr %11, i64 %1
  store double %9, ptr %12, align 8, !tbaa !73
  br label %13

13:                                               ; preds = %6, %8, %3
  %.0 = phi i32 [ -1, %3 ], [ 0, %8 ], [ 0, %6 ]
  call void @llvm.lifetime.end.p0(i64 8, ptr nonnull %4) #11
  ret i32 %.0
}